target datalayout = "e-m:e-p270:32:32-p271:32:32-p272:64:64-i64:64-i128:128-f80:128-n8:16:32:64-S128"
target triple = "x86_64-pc-linux-gnu"

%"struct.std::__detail::_Hash_node_base" = type { ptr }
%"struct.std::__detail::_Prime_rehash_policy" = type { float, i64 }
%"class.std::__cxx11::basic_string" = type { %"struct.std::__cxx11::basic_string<char>::_Alloc_hider", i64, %union.anon }
%"struct.std::__cxx11::basic_string<char>::_Alloc_hider" = type { ptr }
%union.anon = type { i64, [8 x i8] }
%class.vtkSmartPointerBase = type { ptr }
%"class.open3d::core::IsDevice" = type { ptr }
%"class.open3d::core::Device" = type { i32, i32 }
%class.vtkSmartPointer.348 = type { %class.vtkSmartPointerBase }
%"class.open3d::t::geometry::Geometry" = type { %"class.open3d::core::IsDevice", i32, i32, %"class.std::__cxx11::basic_string" }
%"class.open3d::t::geometry::DrawableGeometry" = type { %"class.open3d::visualization::rendering::Material" }
%"class.open3d::visualization::rendering::Material" = type { %"class.std::__cxx11::basic_string", %"class.std::unordered_map.349", %"class.std::unordered_map.369", %"class.std::unordered_map.383" }
%"class.std::unordered_map.349" = type { %"class.std::_Hashtable.350" }
%"class.std::_Hashtable.350" = type { ptr, i64, %"struct.std::__detail::_Hash_node_base", i64, %"struct.std::__detail::_Prime_rehash_policy", ptr }
%"class.std::unordered_map.369" = type { %"class.std::_Hashtable.370" }
%"class.std::_Hashtable.370" = type { ptr, i64, %"struct.std::__detail::_Hash_node_base", i64, %"struct.std::__detail::_Prime_rehash_policy", ptr }
%"class.std::unordered_map.383" = type { %"class.std::_Hashtable.384" }
%"class.std::_Hashtable.384" = type { ptr, i64, %"struct.std::__detail::_Hash_node_base", i64, %"struct.std::__detail::_Prime_rehash_policy", ptr }
%"class.open3d::t::geometry::TensorMap" = type { %"class.std::unordered_map.397", %"class.std::__cxx11::basic_string" }
%"class.std::unordered_map.397" = type { %"class.std::_Hashtable.398" }
%"class.std::_Hashtable.398" = type { ptr, i64, %"struct.std::__detail::_Hash_node_base", i64, %"struct.std::__detail::_Prime_rehash_policy", ptr }
%"class.open3d::t::geometry::LineSet" = type { %"class.open3d::t::geometry::Geometry", %"class.open3d::t::geometry::DrawableGeometry", %"class.open3d::core::Device", %"class.open3d::t::geometry::TensorMap", %"class.open3d::t::geometry::TensorMap" }

; Function Attrs: mustprogress nounwind ssp uwtable
define linkonce_odr noundef ptr @_ZNK15vtkSmartPointerI11vtkPolyDataEcvPS0_Ev(ptr noundef nonnull align 8 dereferenceable(8) %0) #4 comdat align 2 {
  %2 = alloca ptr, align 8
  store ptr %0, ptr %2, align 8, !tbaa !1207
  %3 = load ptr, ptr %2, align 8
  %4 = getelementptr inbounds nuw %class.vtkSmartPointerBase, ptr %3, i32 0, i32 0
  %5 = load ptr, ptr %4, align 8, !tbaa !889
  ret ptr %5
}

; Function Attrs: mustprogress ssp uwtable
define void @_ZN6open3d1t8geometry8vtkutils20ExtrudeLinearLineSetERKNS1_10PointCloudERKNS_4core6TensorEdb(ptr dead_on_unwind noalias writable sret(%"class.open3d::t::geometry::LineSet") align 8 %0, ptr noundef nonnull align 8 dereferenceable(344) %1, ptr noundef nonnull align 8 dereferenceable(160) %2, double noundef %3, i1 noundef zeroext %4) #6 personality ptr @__gxx_personality_v0 {
  %6 = alloca ptr, align 8
  %7 = alloca ptr, align 8
  %8 = alloca ptr, align 8
  %9 = alloca double, align 8
  %10 = alloca i8, align 1
  %11 = alloca %class.vtkSmartPointer.348, align 8
  %12 = alloca ptr, align 8
  %13 = alloca i32, align 4
  store ptr %0, ptr %6, align 8
  store ptr %1, ptr %7, align 8, !tbaa !1205
  store ptr %2, ptr %8, align 8, !tbaa !844
  store double %3, ptr %9, align 8, !tbaa !220
  %14 = zext i1 %4 to i8
  store i8 %14, ptr %10, align 1, !tbaa !98
  call void @llvm.lifetime.start.p0(i64 8, ptr %11) #3
  %15 = load ptr, ptr %7, align 8, !tbaa !1205
  %16 = load ptr, ptr %8, align 8, !tbaa !844
  %17 = load double, ptr %9, align 8, !tbaa !220
  %18 = load i8, ptr %10, align 1, !tbaa !98, !range !116, !noundef !117
  %19 = trunc i8 %18 to i1
  call void @_ZN6open3d1t8geometry8vtkutilsL21ExtrudeLinearPolyDataERKNS1_8GeometryERKNS_4core6TensorEdb(ptr dead_on_unwind writable sret(%class.vtkSmartPointer.348) align 8 %11, ptr noundef nonnull align 8 dereferenceable(48) %15, ptr noundef nonnull align 8 dereferenceable(160) %16, double noundef %17, i1 noundef zeroext %19)
  %20 = call noundef ptr @_ZNK15vtkSmartPointerI11vtkPolyDataEcvPS0_Ev(ptr noundef nonnull align 8 dereferenceable(8) %11) #3
  invoke void @_ZN6open3d1t8geometry8vtkutils28CreateLineSetFromVtkPolyDataEP11vtkPolyDatab(ptr dead_on_unwind writable sret(%"class.open3d::t::geometry::LineSet") align 8 %0, ptr noundef %20, i1 noundef zeroext false)
          to label %21 unwind label %22

21:                                               ; preds = %5
  call void @_ZN19vtkSmartPointerBaseD2Ev(ptr noundef nonnull align 8 dereferenceable(8) %11) #3
  call void @llvm.lifetime.end.p0(i64 8, ptr %11) #3
  ret void

22:                                               ; preds = %5
  %23 = landingpad { ptr, i32 }
          cleanup
  %24 = extractvalue { ptr, i32 } %23, 0
  store ptr %24, ptr %12, align 8
  %25 = extractvalue { ptr, i32 } %23, 1
  store i32 %25, ptr %13, align 4
  call void @_ZN19vtkSmartPointerBaseD2Ev(ptr noundef nonnull align 8 dereferenceable(8) %11) #3
  call void @llvm.lifetime.end.p0(i64 8, ptr %11) #3
  br label %26

26:                                               ; preds = %22
  %27 = load ptr, ptr %12, align 8
  %28 = load i32, ptr %13, align 4
  %29 = insertvalue { ptr, i32 } poison, ptr %27, 0
  %30 = insertvalue { ptr, i32 } %29, i32 %28, 1
  resume { ptr, i32 } %30
}