; Function Attrs: mustprogress ssp uwtable
define void @_ZN6open3d1t8geometry8vtkutils20ExtrudeLinearLineSetERKNS1_10PointCloudERKNS_4core6TensorEdb(ptr dead_on_unwind noalias writable sret(%"class.open3d::t::geometry::LineSet") align 8 %0, ptr noundef nonnull align 8 dereferenceable(344) %1, ptr noundef nonnull align 8 dereferenceable(160) %2, double noundef %3, i1 noundef zeroext %4) local_unnamed_addr #6 personality ptr @__gxx_personality_v0 {
  %6 = alloca %class.vtkSmartPointer.348, align 8
  call void @llvm.lifetime.start.p0(i64 8, ptr nonnull %6) #38
  call fastcc void @_ZN6open3d1t8geometry8vtkutilsL21ExtrudeLinearPolyDataERKNS1_8GeometryERKNS_4core6TensorEdb(ptr dead_on_unwind noalias writable align 8 %6, ptr noundef nonnull align 8 dereferenceable(48) %1, ptr noundef nonnull align 8 dereferenceable(160) %2, double noundef %3, i1 noundef zeroext %4)
  %7 = load ptr, ptr %6, align 8, !tbaa !657
  invoke void @_ZN6open3d1t8geometry8vtkutils28CreateLineSetFromVtkPolyDataEP11vtkPolyDatab(ptr dead_on_unwind writable sret(%"class.open3d::t::geometry::LineSet") align 8 %0, ptr noundef %7, i1 noundef zeroext false)
          to label %8 unwind label %9

8:                                                ; preds = %5
  call void @_ZN19vtkSmartPointerBaseD2Ev(ptr noundef nonnull align 8 dereferenceable(8) %6) #38
  call void @llvm.lifetime.end.p0(i64 8, ptr nonnull %6) #38
  ret void

9:                                                ; preds = %5
  %10 = landingpad { ptr, i32 }
          cleanup
  call void @_ZN19vtkSmartPointerBaseD2Ev(ptr noundef nonnull align 8 dereferenceable(8) %6) #38
  call void @llvm.lifetime.end.p0(i64 8, ptr nonnull %6) #38
  resume { ptr, i32 } %10
}